; Function Attrs: nounwind uwtable
define void @Gia_ManResubPerform(ptr noundef initializes((4, 32)) %0, ptr noundef readonly captures(none) %1, i32 noundef %2, i32 noundef %3, i32 noundef %4, i32 noundef %5, i32 noundef %6, i32 noundef %7, i32 noundef %8, i32 noundef %9) local_unnamed_addr #0 {
  tail call void @Gia_ResbInit(ptr noundef %0, ptr noundef %1, i32 noundef %2, i32 noundef %3, i32 noundef %4, i32 noundef %5, i32 noundef %6, i32 noundef %7, i32 noundef %8, i32 noundef %8)
  %11 = tail call i32 @Gia_ManResubPerform_rec(ptr noundef %0, i32 noundef %3, i32 noundef %9)
  %12 = icmp sgt i32 %11, -1
  %13 = getelementptr inbounds nuw i8, ptr %0, i64 40
  %14 = load ptr, ptr %13, align 8, !tbaa !72
  %15 = getelementptr inbounds nuw i8, ptr %14, i64 4
  br i1 %12, label %16, label %47

16:                                               ; preds = %10
  %17 = load i32, ptr %15, align 4, !tbaa !28
  %18 = load i32, ptr %14, align 8, !tbaa !29
  %19 = icmp eq i32 %17, %18
  br i1 %19, label %20, label %.Vec_IntGrow.exit10_crit_edge.i

.Vec_IntGrow.exit10_crit_edge.i:                  ; preds = %16
  %.phi.trans.insert.i = getelementptr inbounds nuw i8, ptr %14, i64 8
  %.pre.i = load ptr, ptr %.phi.trans.insert.i, align 8, !tbaa !30
  br label %Vec_IntPush.exit

20:                                               ; preds = %16
  %21 = icmp slt i32 %17, 16
  br i1 %21, label %22, label %30

22:                                               ; preds = %20
  %23 = getelementptr inbounds nuw i8, ptr %14, i64 8
  %24 = load ptr, ptr %23, align 8, !tbaa !30
  %.not9.i.i = icmp eq ptr %24, null
  br i1 %.not9.i.i, label %27, label %25

25:                                               ; preds = %22
  %26 = tail call dereferenceable_or_null(64) ptr @realloc(ptr noundef nonnull %24, i64 noundef 64) #30
  br label %Vec_IntGrow.exit.i

27:                                               ; preds = %22
  %28 = tail call noalias dereferenceable_or_null(64) ptr @malloc(i64 noundef 64) #31
  br label %Vec_IntGrow.exit.i

Vec_IntGrow.exit.i:                               ; preds = %27, %25
  %29 = phi ptr [ %26, %25 ], [ %28, %27 ]
  store ptr %29, ptr %23, align 8, !tbaa !30
  store i32 16, ptr %14, align 8, !tbaa !29
  br label %Vec_IntPush.exit

30:                                               ; preds = %20
  %31 = shl nuw nsw i32 %17, 1
  %32 = getelementptr inbounds nuw i8, ptr %14, i64 8
  %33 = load ptr, ptr %32, align 8, !tbaa !30
  %.not9.i9.i = icmp eq ptr %33, null
  %34 = zext nneg i32 %31 to i64
  %35 = shl nuw nsw i64 %34, 2
  br i1 %.not9.i9.i, label %38, label %36

36:                                               ; preds = %30
  %37 = tail call ptr @realloc(ptr noundef nonnull %33, i64 noundef %35) #30
  br label %40

38:                                               ; preds = %30
  %39 = tail call noalias ptr @malloc(i64 noundef %35) #31
  br label %40

40:                                               ; preds = %38, %36
  %41 = phi ptr [ %37, %36 ], [ %39, %38 ]
  store ptr %41, ptr %32, align 8, !tbaa !30
  store i32 %31, ptr %14, align 8, !tbaa !29
  br label %Vec_IntPush.exit

Vec_IntPush.exit:                                 ; preds = %.Vec_IntGrow.exit10_crit_edge.i, %Vec_IntGrow.exit.i, %40
  %42 = phi ptr [ %.pre.i, %.Vec_IntGrow.exit10_crit_edge.i ], [ %41, %40 ], [ %29, %Vec_IntGrow.exit.i ]
  %43 = load i32, ptr %15, align 4, !tbaa !28
  %44 = add nsw i32 %43, 1
  store i32 %44, ptr %15, align 4, !tbaa !28
  %45 = sext i32 %43 to i64
  %46 = getelementptr inbounds i32, ptr %42, i64 %45
  store i32 %11, ptr %46, align 4, !tbaa !31
  br label %48

47:                                               ; preds = %10
  store i32 0, ptr %15, align 4, !tbaa !28
  br label %48

48:                                               ; preds = %47, %Vec_IntPush.exit
  %.not = icmp eq i32 %8, 0
  br i1 %.not, label %50, label %49

49:                                               ; preds = %48
  %putchar = tail call i32 @putchar(i32 10)
  br label %50

50:                                               ; preds = %49, %48
  ret void
}